target datalayout = "e-m:e-p270:32:32-p271:32:32-p272:64:64-i64:64-i128:128-f80:128-n8:16:32:64-S128"
target triple = "x86_64-pc-linux-gnu"

%"class.clang::OMPClause" = type { %"class.clang::SourceLocation", %"class.clang::SourceLocation", i32 }
%"class.clang::SourceLocation" = type { i32 }

; Function Attrs: mustprogress nounwind uwtable
define linkonce_odr hidden noundef i32 @_ZNK5clang9OMPClause13getClauseKindEv(ptr noundef nonnull align 4 dereferenceable(12) %0) #0 comdat align 2 {
  %2 = alloca ptr, align 8
  store ptr %0, ptr %2, align 8
  %3 = load ptr, ptr %2, align 8
  %4 = getelementptr inbounds nuw %"class.clang::OMPClause", ptr %3, i32 0, i32 2
  %5 = load i32, ptr %4, align 4
  ret i32 %5
}

; Function Attrs: mustprogress nounwind uwtable
define dso_local noundef ptr @_ZN5clang20OMPClauseWithPreInit3getEPKNS_9OMPClauseE(ptr noundef %0) #0 align 2 {
  %2 = alloca ptr, align 8
  %3 = alloca ptr, align 8
  store ptr %0, ptr %3, align 8
  %4 = load ptr, ptr %3, align 8
  %5 = call noundef i32 @_ZNK5clang9OMPClause13getClauseKindEv(ptr noundef nonnull align 4 dereferenceable(12) %4)
  switch i32 %5, label %154 [
    i32 86, label %6
    i32 28, label %13
    i32 36, label %20
    i32 51, label %27
    i32 81, label %34
    i32 93, label %41
    i32 45, label %48
    i32 52, label %55
    i32 44, label %62
    i32 70, label %69
    i32 69, label %76
    i32 94, label %83
    i32 26, label %90
    i32 40, label %97
    i32 68, label %104
    i32 35, label %111
    i32 77, label %118
    i32 67, label %125
    i32 64, label %132
    i32 34, label %139
    i32 73, label %146
    i32 20, label %153
    i32 79, label %153
    i32 85, label %153
    i32 91, label %153
    i32 92, label %153
    i32 8, label %153
    i32 7, label %153
    i32 15, label %153
    i32 78, label %153
    i32 89, label %153
    i32 6, label %153
    i32 19, label %153
    i32 18, label %153
    i32 75, label %153
    i32 63, label %153
    i32 102, label %153
    i32 57, label %153
    i32 95, label %153
    i32 37, label %153
    i32 23, label %153
    i32 80, label %153
    i32 110, label %153
    i32 103, label %153
    i32 14, label %153
    i32 16, label %153
    i32 33, label %153
    i32 87, label %153
    i32 1, label %153
    i32 2, label %153
    i32 83, label %153
    i32 82, label %153
    i32 22, label %153
    i32 96, label %153
    i32 90, label %153
    i32 54, label %153
    i32 59, label %153
    i32 42, label %153
    i32 21, label %153
    i32 101, label %153
    i32 100, label %153
    i32 97, label %153
    i32 38, label %153
    i32 106, label %153
    i32 105, label %153
    i32 50, label %153
    i32 41, label %153
    i32 98, label %153
    i32 99, label %153
    i32 84, label %153
    i32 30, label %153
    i32 11, label %153
    i32 10, label %153
    i32 88, label %153
    i32 58, label %153
    i32 27, label %153
    i32 55, label %153
    i32 65, label %153
    i32 74, label %153
    i32 24, label %153
    i32 25, label %153
    i32 47, label %153
    i32 32, label %153
    i32 107, label %153
    i32 4, label %153
    i32 109, label %153
    i32 12, label %153
    i32 72, label %153
  ]

6:                                                ; preds = %1
  %7 = load ptr, ptr %3, align 8
  %8 = icmp eq ptr %7, null
  br i1 %8, label %11, label %9

9:                                                ; preds = %6
  %10 = getelementptr inbounds i8, ptr %7, i64 16
  br label %11

11:                                               ; preds = %9, %6
  %12 = phi ptr [ %10, %9 ], [ null, %6 ]
  store ptr %12, ptr %2, align 8
  br label %156

13:                                               ; preds = %1
  %14 = load ptr, ptr %3, align 8
  %15 = icmp eq ptr %14, null
  br i1 %15, label %18, label %16

16:                                               ; preds = %13
  %17 = getelementptr inbounds i8, ptr %14, i64 16
  br label %18

18:                                               ; preds = %16, %13
  %19 = phi ptr [ %17, %16 ], [ null, %13 ]
  store ptr %19, ptr %2, align 8
  br label %156

20:                                               ; preds = %1
  %21 = load ptr, ptr %3, align 8
  %22 = icmp eq ptr %21, null
  br i1 %22, label %25, label %23

23:                                               ; preds = %20
  %24 = getelementptr inbounds i8, ptr %21, i64 24
  br label %25

25:                                               ; preds = %23, %20
  %26 = phi ptr [ %24, %23 ], [ null, %20 ]
  store ptr %26, ptr %2, align 8
  br label %156

27:                                               ; preds = %1
  %28 = load ptr, ptr %3, align 8
  %29 = icmp eq ptr %28, null
  br i1 %29, label %32, label %30

30:                                               ; preds = %27
  %31 = getelementptr inbounds i8, ptr %28, i64 24
  br label %32

32:                                               ; preds = %30, %27
  %33 = phi ptr [ %31, %30 ], [ null, %27 ]
  store ptr %33, ptr %2, align 8
  br label %156

34:                                               ; preds = %1
  %35 = load ptr, ptr %3, align 8
  %36 = icmp eq ptr %35, null
  br i1 %36, label %39, label %37

37:                                               ; preds = %34
  %38 = getelementptr inbounds i8, ptr %35, i64 24
  br label %39

39:                                               ; preds = %37, %34
  %40 = phi ptr [ %38, %37 ], [ null, %34 ]
  store ptr %40, ptr %2, align 8
  br label %156

41:                                               ; preds = %1
  %42 = load ptr, ptr %3, align 8
  %43 = icmp eq ptr %42, null
  br i1 %43, label %46, label %44

44:                                               ; preds = %41
  %45 = getelementptr inbounds i8, ptr %42, i64 24
  br label %46

46:                                               ; preds = %44, %41
  %47 = phi ptr [ %45, %44 ], [ null, %41 ]
  store ptr %47, ptr %2, align 8
  br label %156

48:                                               ; preds = %1
  %49 = load ptr, ptr %3, align 8
  %50 = icmp eq ptr %49, null
  br i1 %50, label %53, label %51

51:                                               ; preds = %48
  %52 = getelementptr inbounds i8, ptr %49, i64 24
  br label %53

53:                                               ; preds = %51, %48
  %54 = phi ptr [ %52, %51 ], [ null, %48 ]
  store ptr %54, ptr %2, align 8
  br label %156

55:                                               ; preds = %1
  %56 = load ptr, ptr %3, align 8
  %57 = icmp eq ptr %56, null
  br i1 %57, label %60, label %58

58:                                               ; preds = %55
  %59 = getelementptr inbounds i8, ptr %56, i64 24
  br label %60

60:                                               ; preds = %58, %55
  %61 = phi ptr [ %59, %58 ], [ null, %55 ]
  store ptr %61, ptr %2, align 8
  br label %156

62:                                               ; preds = %1
  %63 = load ptr, ptr %3, align 8
  %64 = icmp eq ptr %63, null
  br i1 %64, label %67, label %65

65:                                               ; preds = %62
  %66 = getelementptr inbounds i8, ptr %63, i64 16
  br label %67

67:                                               ; preds = %65, %62
  %68 = phi ptr [ %66, %65 ], [ null, %62 ]
  store ptr %68, ptr %2, align 8
  br label %156

69:                                               ; preds = %1
  %70 = load ptr, ptr %3, align 8
  %71 = icmp eq ptr %70, null
  br i1 %71, label %74, label %72

72:                                               ; preds = %69
  %73 = getelementptr inbounds i8, ptr %70, i64 24
  br label %74

74:                                               ; preds = %72, %69
  %75 = phi ptr [ %73, %72 ], [ null, %69 ]
  store ptr %75, ptr %2, align 8
  br label %156

76:                                               ; preds = %1
  %77 = load ptr, ptr %3, align 8
  %78 = icmp eq ptr %77, null
  br i1 %78, label %81, label %79

79:                                               ; preds = %76
  %80 = getelementptr inbounds i8, ptr %77, i64 24
  br label %81

81:                                               ; preds = %79, %76
  %82 = phi ptr [ %80, %79 ], [ null, %76 ]
  store ptr %82, ptr %2, align 8
  br label %156

83:                                               ; preds = %1
  %84 = load ptr, ptr %3, align 8
  %85 = icmp eq ptr %84, null
  br i1 %85, label %88, label %86

86:                                               ; preds = %83
  %87 = getelementptr inbounds i8, ptr %84, i64 24
  br label %88

88:                                               ; preds = %86, %83
  %89 = phi ptr [ %87, %86 ], [ null, %83 ]
  store ptr %89, ptr %2, align 8
  br label %156

90:                                               ; preds = %1
  %91 = load ptr, ptr %3, align 8
  %92 = icmp eq ptr %91, null
  br i1 %92, label %95, label %93

93:                                               ; preds = %90
  %94 = getelementptr inbounds i8, ptr %91, i64 16
  br label %95

95:                                               ; preds = %93, %90
  %96 = phi ptr [ %94, %93 ], [ null, %90 ]
  store ptr %96, ptr %2, align 8
  br label %156

97:                                               ; preds = %1
  %98 = load ptr, ptr %3, align 8
  %99 = icmp eq ptr %98, null
  br i1 %99, label %102, label %100

100:                                              ; preds = %97
  %101 = getelementptr inbounds i8, ptr %98, i64 16
  br label %102

102:                                              ; preds = %100, %97
  %103 = phi ptr [ %101, %100 ], [ null, %97 ]
  store ptr %103, ptr %2, align 8
  br label %156

104:                                              ; preds = %1
  %105 = load ptr, ptr %3, align 8
  %106 = icmp eq ptr %105, null
  br i1 %106, label %109, label %107

107:                                              ; preds = %104
  %108 = getelementptr inbounds i8, ptr %105, i64 16
  br label %109

109:                                              ; preds = %107, %104
  %110 = phi ptr [ %108, %107 ], [ null, %104 ]
  store ptr %110, ptr %2, align 8
  br label %156

111:                                              ; preds = %1
  %112 = load ptr, ptr %3, align 8
  %113 = icmp eq ptr %112, null
  br i1 %113, label %116, label %114

114:                                              ; preds = %111
  %115 = getelementptr inbounds i8, ptr %112, i64 24
  br label %116

116:                                              ; preds = %114, %111
  %117 = phi ptr [ %115, %114 ], [ null, %111 ]
  store ptr %117, ptr %2, align 8
  br label %156

118:                                              ; preds = %1
  %119 = load ptr, ptr %3, align 8
  %120 = icmp eq ptr %119, null
  br i1 %120, label %123, label %121

121:                                              ; preds = %118
  %122 = getelementptr inbounds i8, ptr %119, i64 16
  br label %123

123:                                              ; preds = %121, %118
  %124 = phi ptr [ %122, %121 ], [ null, %118 ]
  store ptr %124, ptr %2, align 8
  br label %156

125:                                              ; preds = %1
  %126 = load ptr, ptr %3, align 8
  %127 = icmp eq ptr %126, null
  br i1 %127, label %130, label %128

128:                                              ; preds = %125
  %129 = getelementptr inbounds i8, ptr %126, i64 24
  br label %130

130:                                              ; preds = %128, %125
  %131 = phi ptr [ %129, %128 ], [ null, %125 ]
  store ptr %131, ptr %2, align 8
  br label %156

132:                                              ; preds = %1
  %133 = load ptr, ptr %3, align 8
  %134 = icmp eq ptr %133, null
  br i1 %134, label %137, label %135

135:                                              ; preds = %132
  %136 = getelementptr inbounds i8, ptr %133, i64 24
  br label %137

137:                                              ; preds = %135, %132
  %138 = phi ptr [ %136, %135 ], [ null, %132 ]
  store ptr %138, ptr %2, align 8
  br label %156

139:                                              ; preds = %1
  %140 = load ptr, ptr %3, align 8
  %141 = icmp eq ptr %140, null
  br i1 %141, label %144, label %142

142:                                              ; preds = %139
  %143 = getelementptr inbounds i8, ptr %140, i64 24
  br label %144

144:                                              ; preds = %142, %139
  %145 = phi ptr [ %143, %142 ], [ null, %139 ]
  store ptr %145, ptr %2, align 8
  br label %156

146:                                              ; preds = %1
  %147 = load ptr, ptr %3, align 8
  %148 = icmp eq ptr %147, null
  br i1 %148, label %151, label %149

149:                                              ; preds = %146
  %150 = getelementptr inbounds i8, ptr %147, i64 24
  br label %151

151:                                              ; preds = %149, %146
  %152 = phi ptr [ %150, %149 ], [ null, %146 ]
  store ptr %152, ptr %2, align 8
  br label %156

153:                                              ; preds = %1, %1, %1, %1, %1, %1, %1, %1, %1, %1, %1, %1, %1, %1, %1, %1, %1, %1, %1, %1, %1, %1, %1, %1, %1, %1, %1, %1, %1, %1, %1, %1, %1, %1, %1, %1, %1, %1, %1, %1, %1, %1, %1, %1, %1, %1, %1, %1, %1, %1, %1, %1, %1, %1, %1, %1, %1, %1, %1, %1, %1, %1, %1, %1, %1, %1, %1
  br label %155

154:                                              ; preds = %1
  br label %155

155:                                              ; preds = %154, %153
  store ptr null, ptr %2, align 8
  br label %156

156:                                              ; preds = %155, %151, %144, %137, %130, %123, %116, %109, %102, %95, %88, %81, %74, %67, %60, %53, %46, %39, %32, %25, %18, %11
  %157 = load ptr, ptr %2, align 8
  ret ptr %157
}