; Function Attrs: mustprogress nofree norecurse nosync nounwind willreturn memory(argmem: read) uwtable
define dso_local noundef ptr @_ZN5clang20OMPClauseWithPreInit3getEPKNS_9OMPClauseE(ptr noundef readonly %0) local_unnamed_addr #3 align 2 {
  %2 = getelementptr inbounds nuw i8, ptr %0, i64 8
  %3 = load i32, ptr %2, align 4
  switch i32 %3, label %46 [
    i32 86, label %4
    i32 28, label %6
    i32 36, label %8
    i32 51, label %10
    i32 81, label %12
    i32 93, label %14
    i32 45, label %16
    i32 52, label %18
    i32 44, label %20
    i32 70, label %22
    i32 69, label %24
    i32 94, label %26
    i32 26, label %28
    i32 40, label %30
    i32 68, label %32
    i32 35, label %34
    i32 77, label %36
    i32 67, label %38
    i32 64, label %40
    i32 34, label %42
    i32 73, label %44
  ]

4:                                                ; preds = %1
  %5 = getelementptr inbounds nuw i8, ptr %0, i64 16
  br label %46

6:                                                ; preds = %1
  %7 = getelementptr inbounds nuw i8, ptr %0, i64 16
  br label %46

8:                                                ; preds = %1
  %9 = getelementptr inbounds nuw i8, ptr %0, i64 24
  br label %46

10:                                               ; preds = %1
  %11 = getelementptr inbounds nuw i8, ptr %0, i64 24
  br label %46

12:                                               ; preds = %1
  %13 = getelementptr inbounds nuw i8, ptr %0, i64 24
  br label %46

14:                                               ; preds = %1
  %15 = getelementptr inbounds nuw i8, ptr %0, i64 24
  br label %46

16:                                               ; preds = %1
  %17 = getelementptr inbounds nuw i8, ptr %0, i64 24
  br label %46

18:                                               ; preds = %1
  %19 = getelementptr inbounds nuw i8, ptr %0, i64 24
  br label %46

20:                                               ; preds = %1
  %21 = getelementptr inbounds nuw i8, ptr %0, i64 16
  br label %46

22:                                               ; preds = %1
  %23 = getelementptr inbounds nuw i8, ptr %0, i64 24
  br label %46

24:                                               ; preds = %1
  %25 = getelementptr inbounds nuw i8, ptr %0, i64 24
  br label %46

26:                                               ; preds = %1
  %27 = getelementptr inbounds nuw i8, ptr %0, i64 24
  br label %46

28:                                               ; preds = %1
  %29 = getelementptr inbounds nuw i8, ptr %0, i64 16
  br label %46

30:                                               ; preds = %1
  %31 = getelementptr inbounds nuw i8, ptr %0, i64 16
  br label %46

32:                                               ; preds = %1
  %33 = getelementptr inbounds nuw i8, ptr %0, i64 16
  br label %46

34:                                               ; preds = %1
  %35 = getelementptr inbounds nuw i8, ptr %0, i64 24
  br label %46

36:                                               ; preds = %1
  %37 = getelementptr inbounds nuw i8, ptr %0, i64 16
  br label %46

38:                                               ; preds = %1
  %39 = getelementptr inbounds nuw i8, ptr %0, i64 24
  br label %46

40:                                               ; preds = %1
  %41 = getelementptr inbounds nuw i8, ptr %0, i64 24
  br label %46

42:                                               ; preds = %1
  %43 = getelementptr inbounds nuw i8, ptr %0, i64 24
  br label %46

44:                                               ; preds = %1
  %45 = getelementptr inbounds nuw i8, ptr %0, i64 24
  br label %46

46:                                               ; preds = %1, %44, %42, %40, %38, %36, %34, %32, %30, %28, %26, %24, %22, %20, %18, %16, %14, %12, %10, %8, %6, %4
  %.0 = phi ptr [ %45, %44 ], [ %43, %42 ], [ %41, %40 ], [ %39, %38 ], [ %37, %36 ], [ %35, %34 ], [ %33, %32 ], [ %31, %30 ], [ %29, %28 ], [ %27, %26 ], [ %25, %24 ], [ %23, %22 ], [ %21, %20 ], [ %19, %18 ], [ %17, %16 ], [ %15, %14 ], [ %13, %12 ], [ %11, %10 ], [ %9, %8 ], [ %7, %6 ], [ %5, %4 ], [ null, %1 ]
  ret ptr %.0
}